; ModuleID = '19/2185.c'
source_filename = "19/2185.c"
target datalayout = "e-m:e-p270:32:32-p271:32:32-p272:64:64-i64:64-f80:128-n8:16:32:64-S128"
target triple = "x86_64-pc-linux-gnu"

@.str = private unnamed_addr constant [3 x i8] c"%s\00", align 1

; Function Attrs: noinline nounwind uwtable
define dso_local i32 @check(i8* %0, i8* %1, i32 %2) #0 {
  %4 = alloca i32, align 4
  %5 = alloca i8*, align 8
  %6 = alloca i8*, align 8
  %7 = alloca i32, align 4
  %8 = alloca i32, align 4
  store i8* %0, i8** %5, align 8
  store i8* %1, i8** %6, align 8
  store i32 %2, i32* %7, align 4
  store i32 0, i32* %8, align 4
  br label %9

9:                                                ; preds = %29, %3
  %10 = load i32, i32* %8, align 4
  %11 = load i32, i32* %7, align 4
  %12 = icmp slt i32 %10, %11
  br i1 %12, label %13, label %32

13:                                               ; preds = %9
  %14 = load i8*, i8** %5, align 8
  %15 = load i32, i32* %8, align 4
  %16 = sext i32 %15 to i64
  %17 = getelementptr inbounds i8, i8* %14, i64 %16
  %18 = load i8, i8* %17, align 1
  %19 = sext i8 %18 to i32
  %20 = load i8*, i8** %6, align 8
  %21 = load i32, i32* %8, align 4
  %22 = sext i32 %21 to i64
  %23 = getelementptr inbounds i8, i8* %20, i64 %22
  %24 = load i8, i8* %23, align 1
  %25 = sext i8 %24 to i32
  %26 = icmp ne i32 %19, %25
  br i1 %26, label %27, label %28

27:                                               ; preds = %13
  store i32 0, i32* %4, align 4
  br label %33

28:                                               ; preds = %13
  br label %29

29:                                               ; preds = %28
  %30 = load i32, i32* %8, align 4
  %31 = add nsw i32 %30, 1
  store i32 %31, i32* %8, align 4
  br label %9

32:                                               ; preds = %9
  store i32 1, i32* %4, align 4
  br label %33

33:                                               ; preds = %32, %27
  %34 = load i32, i32* %4, align 4
  ret i32 %34
}

; Function Attrs: noinline nounwind uwtable
define dso_local i32 @main() #0 {
  %1 = alloca i32, align 4
  %2 = alloca [200 x i8], align 16
  %3 = alloca [200 x i8], align 16
  %4 = alloca [101 x i8], align 16
  %5 = alloca [101 x i8], align 16
  %6 = alloca i32, align 4
  %7 = alloca i32, align 4
  %8 = alloca i32, align 4
  %9 = alloca i32, align 4
  %10 = alloca i32, align 4
  %11 = alloca i32, align 4
  %12 = alloca i32, align 4
  store i32 0, i32* %1, align 4
  store i32 0, i32* %6, align 4
  store i32 0, i32* %11, align 4
  store i32 1, i32* %12, align 4
  %13 = getelementptr inbounds [200 x i8], [200 x i8]* %2, i64 0, i64 0
  %14 = call i32 (i8*, ...) bitcast (i32 (...)* @gets to i32 (i8*, ...)*)(i8* %13)
  %15 = getelementptr inbounds [101 x i8], [101 x i8]* %4, i64 0, i64 0
  %16 = call i32 (i8*, ...) bitcast (i32 (...)* @gets to i32 (i8*, ...)*)(i8* %15)
  %17 = getelementptr inbounds [101 x i8], [101 x i8]* %5, i64 0, i64 0
  %18 = call i32 (i8*, ...) bitcast (i32 (...)* @gets to i32 (i8*, ...)*)(i8* %17)
  %19 = getelementptr inbounds [200 x i8], [200 x i8]* %2, i64 0, i64 0
  %20 = call i64 @strlen(i8* %19) #3
  %21 = trunc i64 %20 to i32
  store i32 %21, i32* %8, align 4
  %22 = getelementptr inbounds [101 x i8], [101 x i8]* %4, i64 0, i64 0
  %23 = call i64 @strlen(i8* %22) #3
  %24 = trunc i64 %23 to i32
  store i32 %24, i32* %9, align 4
  %25 = getelementptr inbounds [101 x i8], [101 x i8]* %5, i64 0, i64 0
  %26 = call i64 @strlen(i8* %25) #3
  %27 = trunc i64 %26 to i32
  store i32 %27, i32* %10, align 4
  %28 = getelementptr inbounds [101 x i8], [101 x i8]* %4, i64 0, i64 0
  %29 = load i8, i8* %28, align 16
  %30 = sext i8 %29 to i32
  %31 = getelementptr inbounds [200 x i8], [200 x i8]* %2, i64 0, i64 0
  %32 = load i8, i8* %31, align 16
  %33 = sext i8 %32 to i32
  %34 = icmp eq i32 %30, %33
  br i1 %34, label %35, label %81

35:                                               ; preds = %0
  %36 = getelementptr inbounds [200 x i8], [200 x i8]* %2, i64 0, i64 0
  %37 = getelementptr inbounds [101 x i8], [101 x i8]* %4, i64 0, i64 0
  %38 = load i32, i32* %9, align 4
  %39 = call i32 @check(i8* %36, i8* %37, i32 %38)
  %40 = icmp eq i32 %39, 1
  br i1 %40, label %41, label %72

41:                                               ; preds = %35
  %42 = load i32, i32* %6, align 4
  %43 = load i32, i32* %9, align 4
  %44 = add nsw i32 %42, %43
  %45 = sext i32 %44 to i64
  %46 = getelementptr inbounds [200 x i8], [200 x i8]* %2, i64 0, i64 %45
  %47 = load i8, i8* %46, align 1
  %48 = sext i8 %47 to i32
  %49 = icmp eq i32 %48, 32
  br i1 %49, label %50, label %72

50:                                               ; preds = %41
  store i32 0, i32* %7, align 4
  br label %51

51:                                               ; preds = %65, %50
  %52 = load i32, i32* %7, align 4
  %53 = load i32, i32* %10, align 4
  %54 = icmp slt i32 %52, %53
  br i1 %54, label %55, label %68

55:                                               ; preds = %51
  %56 = load i32, i32* %7, align 4
  %57 = sext i32 %56 to i64
  %58 = getelementptr inbounds [101 x i8], [101 x i8]* %5, i64 0, i64 %57
  %59 = load i8, i8* %58, align 1
  %60 = load i32, i32* %11, align 4
  %61 = sext i32 %60 to i64
  %62 = getelementptr inbounds [200 x i8], [200 x i8]* %3, i64 0, i64 %61
  store i8 %59, i8* %62, align 1
  %63 = load i32, i32* %11, align 4
  %64 = add nsw i32 %63, 1
  store i32 %64, i32* %11, align 4
  br label %65

65:                                               ; preds = %55
  %66 = load i32, i32* %7, align 4
  %67 = add nsw i32 %66, 1
  store i32 %67, i32* %7, align 4
  br label %51

68:                                               ; preds = %51
  %69 = load i32, i32* %6, align 4
  %70 = load i32, i32* %9, align 4
  %71 = add nsw i32 %69, %70
  store i32 %71, i32* %12, align 4
  br label %80

72:                                               ; preds = %41, %35
  %73 = getelementptr inbounds [200 x i8], [200 x i8]* %2, i64 0, i64 0
  %74 = load i8, i8* %73, align 16
  %75 = load i32, i32* %11, align 4
  %76 = sext i32 %75 to i64
  %77 = getelementptr inbounds [200 x i8], [200 x i8]* %3, i64 0, i64 %76
  store i8 %74, i8* %77, align 1
  %78 = load i32, i32* %11, align 4
  %79 = add nsw i32 %78, 1
  store i32 %79, i32* %11, align 4
  br label %80

80:                                               ; preds = %72, %68
  br label %89

81:                                               ; preds = %0
  %82 = getelementptr inbounds [200 x i8], [200 x i8]* %2, i64 0, i64 0
  %83 = load i8, i8* %82, align 16
  %84 = load i32, i32* %11, align 4
  %85 = sext i32 %84 to i64
  %86 = getelementptr inbounds [200 x i8], [200 x i8]* %3, i64 0, i64 %85
  store i8 %83, i8* %86, align 1
  %87 = load i32, i32* %11, align 4
  %88 = add nsw i32 %87, 1
  store i32 %88, i32* %11, align 4
  br label %89

89:                                               ; preds = %81, %80
  %90 = load i32, i32* %12, align 4
  store i32 %90, i32* %6, align 4
  br label %91

91:                                               ; preds = %183, %89
  %92 = load i32, i32* %6, align 4
  %93 = load i32, i32* %8, align 4
  %94 = icmp slt i32 %92, %93
  br i1 %94, label %95, label %186

95:                                               ; preds = %91
  %96 = getelementptr inbounds [101 x i8], [101 x i8]* %4, i64 0, i64 0
  %97 = load i8, i8* %96, align 16
  %98 = sext i8 %97 to i32
  %99 = load i32, i32* %6, align 4
  %100 = sext i32 %99 to i64
  %101 = getelementptr inbounds [200 x i8], [200 x i8]* %2, i64 0, i64 %100
  %102 = load i8, i8* %101, align 1
  %103 = sext i8 %102 to i32
  %104 = icmp eq i32 %98, %103
  br i1 %104, label %105, label %172

105:                                              ; preds = %95
  %106 = load i32, i32* %6, align 4
  %107 = sext i32 %106 to i64
  %108 = getelementptr inbounds [200 x i8], [200 x i8]* %2, i64 0, i64 %107
  %109 = getelementptr inbounds [101 x i8], [101 x i8]* %4, i64 0, i64 0
  %110 = load i32, i32* %9, align 4
  %111 = call i32 @check(i8* %108, i8* %109, i32 %110)
  %112 = icmp eq i32 %111, 1
  br i1 %112, label %113, label %162

113:                                              ; preds = %105
  %114 = load i32, i32* %6, align 4
  %115 = sub nsw i32 %114, 1
  %116 = sext i32 %115 to i64
  %117 = getelementptr inbounds [200 x i8], [200 x i8]* %2, i64 0, i64 %116
  %118 = load i8, i8* %117, align 1
  %119 = sext i8 %118 to i32
  %120 = icmp eq i32 %119, 32
  br i1 %120, label %121, label %162

121:                                              ; preds = %113
  %122 = load i32, i32* %6, align 4
  %123 = load i32, i32* %9, align 4
  %124 = add nsw i32 %122, %123
  %125 = sext i32 %124 to i64
  %126 = getelementptr inbounds [200 x i8], [200 x i8]* %2, i64 0, i64 %125
  %127 = load i8, i8* %126, align 1
  %128 = sext i8 %127 to i32
  %129 = icmp eq i32 %128, 32
  br i1 %129, label %139, label %130

130:                                              ; preds = %121
  %131 = load i32, i32* %6, align 4
  %132 = load i32, i32* %9, align 4
  %133 = add nsw i32 %131, %132
  %134 = sext i32 %133 to i64
  %135 = getelementptr inbounds [200 x i8], [200 x i8]* %2, i64 0, i64 %134
  %136 = load i8, i8* %135, align 1
  %137 = sext i8 %136 to i32
  %138 = icmp eq i32 %137, 0
  br i1 %138, label %139, label %162

139:                                              ; preds = %130, %121
  store i32 0, i32* %7, align 4
  br label %140

140:                                              ; preds = %154, %139
  %141 = load i32, i32* %7, align 4
  %142 = load i32, i32* %10, align 4
  %143 = icmp slt i32 %141, %142
  br i1 %143, label %144, label %157

144:                                              ; preds = %140
  %145 = load i32, i32* %7, align 4
  %146 = sext i32 %145 to i64
  %147 = getelementptr inbounds [101 x i8], [101 x i8]* %5, i64 0, i64 %146
  %148 = load i8, i8* %147, align 1
  %149 = load i32, i32* %11, align 4
  %150 = sext i32 %149 to i64
  %151 = getelementptr inbounds [200 x i8], [200 x i8]* %3, i64 0, i64 %150
  store i8 %148, i8* %151, align 1
  %152 = load i32, i32* %11, align 4
  %153 = add nsw i32 %152, 1
  store i32 %153, i32* %11, align 4
  br label %154

154:                                              ; preds = %144
  %155 = load i32, i32* %7, align 4
  %156 = add nsw i32 %155, 1
  store i32 %156, i32* %7, align 4
  br label %140

157:                                              ; preds = %140
  %158 = load i32, i32* %6, align 4
  %159 = load i32, i32* %9, align 4
  %160 = add nsw i32 %158, %159
  %161 = sub nsw i32 %160, 1
  store i32 %161, i32* %6, align 4
  br label %183

162:                                              ; preds = %130, %113, %105
  %163 = load i32, i32* %6, align 4
  %164 = sext i32 %163 to i64
  %165 = getelementptr inbounds [200 x i8], [200 x i8]* %2, i64 0, i64 %164
  %166 = load i8, i8* %165, align 1
  %167 = load i32, i32* %11, align 4
  %168 = sext i32 %167 to i64
  %169 = getelementptr inbounds [200 x i8], [200 x i8]* %3, i64 0, i64 %168
  store i8 %166, i8* %169, align 1
  %170 = load i32, i32* %11, align 4
  %171 = add nsw i32 %170, 1
  store i32 %171, i32* %11, align 4
  br label %183

172:                                              ; preds = %95
  %173 = load i32, i32* %6, align 4
  %174 = sext i32 %173 to i64
  %175 = getelementptr inbounds [200 x i8], [200 x i8]* %2, i64 0, i64 %174
  %176 = load i8, i8* %175, align 1
  %177 = load i32, i32* %11, align 4
  %178 = sext i32 %177 to i64
  %179 = getelementptr inbounds [200 x i8], [200 x i8]* %3, i64 0, i64 %178
  store i8 %176, i8* %179, align 1
  %180 = load i32, i32* %11, align 4
  %181 = add nsw i32 %180, 1
  store i32 %181, i32* %11, align 4
  br label %182

182:                                              ; preds = %172
  br label %183

183:                                              ; preds = %182, %162, %157
  %184 = load i32, i32* %6, align 4
  %185 = add nsw i32 %184, 1
  store i32 %185, i32* %6, align 4
  br label %91

186:                                              ; preds = %91
  %187 = load i32, i32* %11, align 4
  %188 = sext i32 %187 to i64
  %189 = getelementptr inbounds [200 x i8], [200 x i8]* %3, i64 0, i64 %188
  store i8 0, i8* %189, align 1
  %190 = getelementptr inbounds [200 x i8], [200 x i8]* %3, i64 0, i64 0
  %191 = call i32 (i8*, ...) @printf(i8* getelementptr inbounds ([3 x i8], [3 x i8]* @.str, i64 0, i64 0), i8* %190)
  %192 = load i32, i32* %1, align 4
  ret i32 %192
}

declare dso_local i32 @gets(...) #1

; Function Attrs: nounwind readonly
declare dso_local i64 @strlen(i8*) #2

declare dso_local i32 @printf(i8*, ...) #1


!llvm.module.flags = !{!0}
!llvm.ident = !{!1}

!0 = !{i32 1, !"wchar_size", i32 4}
!1 = !{!"clang version 10.0.0-4ubuntu1 "}
